target datalayout = "e-m:e-p270:32:32-p271:32:32-p272:64:64-i64:64-i128:128-f80:128-n8:16:32:64-S128"
target triple = "x86_64-pc-linux-gnu"

%struct.Aes = type { [60 x i32], i32, i32, [8 x i8], [4 x i32], [4 x i32], [2 x i32], i32, [4 x i8], %struct.Gcm, ptr, [8 x i8] }
%struct.Gcm = type { [16 x i8], [32 x [16 x i8]] }

; Function Attrs: inlinehint nounwind uwtable
define internal void @IncCtr(ptr noundef %0, i32 noundef %1) #4 {
  %3 = alloca ptr, align 8
  %4 = alloca i32, align 4
  %5 = alloca i32, align 4
  store ptr %0, ptr %3, align 8, !tbaa !8
  store i32 %1, ptr %4, align 4, !tbaa !10
  call void @llvm.lifetime.start.p0(i64 4, ptr %5) #6
  %6 = load i32, ptr %4, align 4, !tbaa !10
  %7 = sub nsw i32 %6, 1
  store i32 %7, ptr %5, align 4, !tbaa !10
  br label %8

8:                                                ; preds = %21, %2
  %9 = load i32, ptr %5, align 4, !tbaa !10
  %10 = icmp sge i32 %9, 0
  br i1 %10, label %11, label %24

11:                                               ; preds = %8
  %12 = load ptr, ptr %3, align 8, !tbaa !8
  %13 = load i32, ptr %5, align 4, !tbaa !10
  %14 = sext i32 %13 to i64
  %15 = getelementptr inbounds i8, ptr %12, i64 %14
  %16 = load i8, ptr %15, align 1, !tbaa !19
  %17 = add i8 %16, 1
  store i8 %17, ptr %15, align 1, !tbaa !19
  %18 = icmp ne i8 %17, 0
  br i1 %18, label %19, label %20

19:                                               ; preds = %11
  br label %24

20:                                               ; preds = %11
  br label %21

21:                                               ; preds = %20
  %22 = load i32, ptr %5, align 4, !tbaa !10
  %23 = add nsw i32 %22, -1
  store i32 %23, ptr %5, align 4, !tbaa !10
  br label %8, !llvm.loop !42

24:                                               ; preds = %19, %8
  call void @llvm.lifetime.end.p0(i64 4, ptr %5) #6
  ret void
}

; Function Attrs: nounwind uwtable
define i32 @wc_AesGcmEncrypt_ex(ptr noundef %0, ptr noundef %1, ptr noundef %2, i32 noundef %3, ptr noundef %4, i32 noundef %5, ptr noundef %6, i32 noundef %7, ptr noundef %8, i32 noundef %9) #0 {
  %11 = alloca ptr, align 8
  %12 = alloca ptr, align 8
  %13 = alloca ptr, align 8
  %14 = alloca i32, align 4
  %15 = alloca ptr, align 8
  %16 = alloca i32, align 4
  %17 = alloca ptr, align 8
  %18 = alloca i32, align 4
  %19 = alloca ptr, align 8
  %20 = alloca i32, align 4
  %21 = alloca i32, align 4
  store ptr %0, ptr %11, align 8, !tbaa !3
  store ptr %1, ptr %12, align 8, !tbaa !8
  store ptr %2, ptr %13, align 8, !tbaa !8
  store i32 %3, ptr %14, align 4, !tbaa !10
  store ptr %4, ptr %15, align 8, !tbaa !8
  store i32 %5, ptr %16, align 4, !tbaa !10
  store ptr %6, ptr %17, align 8, !tbaa !8
  store i32 %7, ptr %18, align 4, !tbaa !10
  store ptr %8, ptr %19, align 8, !tbaa !8
  store i32 %9, ptr %20, align 4, !tbaa !10
  call void @llvm.lifetime.start.p0(i64 4, ptr %21) #6
  store i32 0, ptr %21, align 4, !tbaa !10
  %22 = load ptr, ptr %11, align 8, !tbaa !3
  %23 = icmp eq ptr %22, null
  br i1 %23, label %48, label %24

24:                                               ; preds = %10
  %25 = load i32, ptr %14, align 4, !tbaa !10
  %26 = icmp ne i32 %25, 0
  br i1 %26, label %27, label %33

27:                                               ; preds = %24
  %28 = load ptr, ptr %13, align 8, !tbaa !8
  %29 = icmp eq ptr %28, null
  br i1 %29, label %48, label %30

30:                                               ; preds = %27
  %31 = load ptr, ptr %12, align 8, !tbaa !8
  %32 = icmp eq ptr %31, null
  br i1 %32, label %48, label %33

33:                                               ; preds = %30, %24
  %34 = load ptr, ptr %15, align 8, !tbaa !8
  %35 = icmp eq ptr %34, null
  br i1 %35, label %48, label %36

36:                                               ; preds = %33
  %37 = load i32, ptr %16, align 4, !tbaa !10
  %38 = load ptr, ptr %11, align 8, !tbaa !3
  %39 = getelementptr inbounds nuw %struct.Aes, ptr %38, i32 0, i32 7
  %40 = load i32, ptr %39, align 8, !tbaa !39
  %41 = icmp ne i32 %37, %40
  br i1 %41, label %48, label %42

42:                                               ; preds = %36
  %43 = load ptr, ptr %19, align 8, !tbaa !8
  %44 = icmp eq ptr %43, null
  br i1 %44, label %45, label %49

45:                                               ; preds = %42
  %46 = load i32, ptr %20, align 4, !tbaa !10
  %47 = icmp ne i32 %46, 0
  br i1 %47, label %48, label %49

48:                                               ; preds = %45, %36, %33, %30, %27, %10
  store i32 -173, ptr %21, align 4, !tbaa !10
  br label %49

49:                                               ; preds = %48, %45, %42
  %50 = load i32, ptr %21, align 4, !tbaa !10
  %51 = icmp eq i32 %50, 0
  br i1 %51, label %52, label %77

52:                                               ; preds = %49
  %53 = load ptr, ptr %11, align 8, !tbaa !3
  %54 = getelementptr inbounds nuw %struct.Aes, ptr %53, i32 0, i32 6
  %55 = getelementptr inbounds [2 x i32], ptr %54, i64 0, i64 0
  %56 = load i32, ptr %55, align 16, !tbaa !10
  %57 = add i32 %56, 1
  store i32 %57, ptr %55, align 16, !tbaa !10
  %58 = load ptr, ptr %11, align 8, !tbaa !3
  %59 = getelementptr inbounds nuw %struct.Aes, ptr %58, i32 0, i32 6
  %60 = getelementptr inbounds [2 x i32], ptr %59, i64 0, i64 0
  %61 = load i32, ptr %60, align 16, !tbaa !10
  %62 = icmp eq i32 %61, 0
  br i1 %62, label %63, label %76

63:                                               ; preds = %52
  %64 = load ptr, ptr %11, align 8, !tbaa !3
  %65 = getelementptr inbounds nuw %struct.Aes, ptr %64, i32 0, i32 6
  %66 = getelementptr inbounds [2 x i32], ptr %65, i64 0, i64 1
  %67 = load i32, ptr %66, align 4, !tbaa !10
  %68 = add i32 %67, 1
  store i32 %68, ptr %66, align 4, !tbaa !10
  %69 = load ptr, ptr %11, align 8, !tbaa !3
  %70 = getelementptr inbounds nuw %struct.Aes, ptr %69, i32 0, i32 6
  %71 = getelementptr inbounds [2 x i32], ptr %70, i64 0, i64 1
  %72 = load i32, ptr %71, align 4, !tbaa !10
  %73 = icmp eq i32 %72, 0
  br i1 %73, label %74, label %75

74:                                               ; preds = %63
  store i32 -260, ptr %21, align 4, !tbaa !10
  br label %75

75:                                               ; preds = %74, %63
  br label %76

76:                                               ; preds = %75, %52
  br label %77

77:                                               ; preds = %76, %49
  %78 = load i32, ptr %21, align 4, !tbaa !10
  %79 = icmp eq i32 %78, 0
  br i1 %79, label %80, label %108

80:                                               ; preds = %77
  %81 = load ptr, ptr %15, align 8, !tbaa !8
  %82 = load ptr, ptr %11, align 8, !tbaa !3
  %83 = getelementptr inbounds nuw %struct.Aes, ptr %82, i32 0, i32 4
  %84 = getelementptr inbounds [4 x i32], ptr %83, i64 0, i64 0
  %85 = load i32, ptr %16, align 4, !tbaa !10
  %86 = zext i32 %85 to i64
  call void @llvm.memcpy.p0.p0.i64(ptr align 1 %81, ptr align 16 %84, i64 %86, i1 false)
  %87 = load ptr, ptr %11, align 8, !tbaa !3
  %88 = load ptr, ptr %12, align 8, !tbaa !8
  %89 = load ptr, ptr %13, align 8, !tbaa !8
  %90 = load i32, ptr %14, align 4, !tbaa !10
  %91 = load ptr, ptr %11, align 8, !tbaa !3
  %92 = getelementptr inbounds nuw %struct.Aes, ptr %91, i32 0, i32 4
  %93 = getelementptr inbounds [4 x i32], ptr %92, i64 0, i64 0
  %94 = load i32, ptr %16, align 4, !tbaa !10
  %95 = load ptr, ptr %17, align 8, !tbaa !8
  %96 = load i32, ptr %18, align 4, !tbaa !10
  %97 = load ptr, ptr %19, align 8, !tbaa !8
  %98 = load i32, ptr %20, align 4, !tbaa !10
  %99 = call i32 @wc_AesGcmEncrypt(ptr noundef %87, ptr noundef %88, ptr noundef %89, i32 noundef %90, ptr noundef %93, i32 noundef %94, ptr noundef %95, i32 noundef %96, ptr noundef %97, i32 noundef %98)
  store i32 %99, ptr %21, align 4, !tbaa !10
  %100 = load i32, ptr %21, align 4, !tbaa !10
  %101 = icmp eq i32 %100, 0
  br i1 %101, label %102, label %107

102:                                              ; preds = %80
  %103 = load ptr, ptr %11, align 8, !tbaa !3
  %104 = getelementptr inbounds nuw %struct.Aes, ptr %103, i32 0, i32 4
  %105 = getelementptr inbounds [4 x i32], ptr %104, i64 0, i64 0
  %106 = load i32, ptr %16, align 4, !tbaa !10
  call void @IncCtr(ptr noundef %105, i32 noundef %106)
  br label %107

107:                                              ; preds = %102, %80
  br label %108

108:                                              ; preds = %107, %77
  %109 = load i32, ptr %21, align 4, !tbaa !10
  call void @llvm.lifetime.end.p0(i64 4, ptr %21) #6
  ret i32 %109
}