; Function Attrs: nofree norecurse nosync nounwind memory(readwrite, inaccessiblemem: none) uwtable
define range(i32 -260, 1) i32 @wc_AesGcmEncrypt_ex(ptr noundef %0, ptr noundef %1, ptr noundef %2, i32 noundef %3, ptr noundef writeonly captures(address_is_null) %4, i32 noundef %5, ptr noundef %6, i32 noundef %7, ptr noundef %8, i32 noundef %9) local_unnamed_addr #6 {
  %11 = icmp eq ptr %0, null
  br i1 %11, label %IncCtr.exit, label %12

12:                                               ; preds = %10
  %.not = icmp eq i32 %3, 0
  br i1 %.not, label %17, label %13

13:                                               ; preds = %12
  %14 = icmp eq ptr %2, null
  %15 = icmp eq ptr %1, null
  %or.cond = or i1 %15, %14
  %16 = icmp eq ptr %4, null
  %or.cond3 = or i1 %or.cond, %16
  br i1 %or.cond3, label %IncCtr.exit, label %18

17:                                               ; preds = %12
  %.old2 = icmp eq ptr %4, null
  br i1 %.old2, label %IncCtr.exit, label %18

18:                                               ; preds = %13, %17
  %19 = getelementptr inbounds nuw i8, ptr %0, i64 296
  %20 = load i32, ptr %19, align 8, !tbaa !42
  %.not40 = icmp eq i32 %5, %20
  br i1 %.not40, label %21, label %IncCtr.exit

21:                                               ; preds = %18
  %22 = icmp eq ptr %8, null
  %23 = icmp ne i32 %9, 0
  %or.cond6 = and i1 %22, %23
  br i1 %or.cond6, label %IncCtr.exit, label %24

24:                                               ; preds = %21
  %25 = getelementptr inbounds nuw i8, ptr %0, i64 288
  %26 = load i32, ptr %25, align 16, !tbaa !11
  %27 = add i32 %26, 1
  store i32 %27, ptr %25, align 16, !tbaa !11
  %28 = icmp eq i32 %27, 0
  br i1 %28, label %29, label %34

29:                                               ; preds = %24
  %30 = getelementptr inbounds nuw i8, ptr %0, i64 292
  %31 = load i32, ptr %30, align 4, !tbaa !11
  %32 = add i32 %31, 1
  store i32 %32, ptr %30, align 4, !tbaa !11
  %33 = icmp eq i32 %32, 0
  br i1 %33, label %IncCtr.exit, label %34

34:                                               ; preds = %24, %29
  %35 = getelementptr inbounds nuw i8, ptr %0, i64 256
  %36 = zext i32 %5 to i64
  tail call void @llvm.memcpy.p0.p0.i64(ptr nonnull align 1 %4, ptr nonnull align 16 %35, i64 %36, i1 false)
  %37 = tail call i32 @wc_AesGcmEncrypt(ptr noundef nonnull %0, ptr noundef %1, ptr noundef %2, i32 noundef %3, ptr noundef nonnull %35, i32 noundef %5, ptr noundef %6, i32 noundef %7, ptr noundef %8, i32 noundef %9)
  %38 = icmp eq i32 %37, 0
  br i1 %38, label %.preheader, label %IncCtr.exit

.preheader:                                       ; preds = %34, %41
  %indvars.iv.i = phi i64 [ %42, %41 ], [ %36, %34 ]
  %39 = trunc nuw i64 %indvars.iv.i to i32
  %40 = icmp sgt i32 %39, 0
  br i1 %40, label %41, label %IncCtr.exit

41:                                               ; preds = %.preheader
  %42 = add nsw i64 %indvars.iv.i, -1
  %43 = getelementptr inbounds nuw i8, ptr %35, i64 %42
  %44 = load i8, ptr %43, align 1, !tbaa !15
  %45 = add i8 %44, 1
  store i8 %45, ptr %43, align 1, !tbaa !15
  %.not.i = icmp eq i8 %45, 0
  br i1 %.not.i, label %.preheader, label %IncCtr.exit, !llvm.loop !43

IncCtr.exit:                                      ; preds = %41, %.preheader, %29, %21, %18, %17, %13, %10, %34
  %.2 = phi i32 [ %37, %34 ], [ -173, %21 ], [ -173, %18 ], [ -173, %17 ], [ -173, %13 ], [ -173, %10 ], [ -260, %29 ], [ 0, %.preheader ], [ 0, %41 ]
  ret i32 %.2
}